target datalayout = "e-m:e-p270:32:32-p271:32:32-p272:64:64-i64:64-i128:128-f80:128-n8:16:32:64-S128"
target triple = "x86_64-unknown-linux-gnu"

%struct.QIOChannelTLS = type { %struct.QIOChannel, ptr, ptr, i32, i32 }
%struct.QIOChannel = type { %struct.Object, i32, ptr, ptr, ptr, ptr, ptr, i8 }
%struct.Object = type { ptr, ptr, ptr, i32, ptr }
%struct.QIOChannelTLSData = type { ptr, ptr }

@.str = private unnamed_addr constant [16 x i8] c"qio-channel-tls\00", align 1
@.str.1 = private unnamed_addr constant [103 x i8] c"/home/dtcxzyw/WorkSpace/Projects/compilers/llvm-opt-benchmark/bench/qemu/qemu/include/io/channel-tls.h\00", align 1
@__func__.QIO_CHANNEL_TLS = private unnamed_addr constant [16 x i8] c"QIO_CHANNEL_TLS\00", align 1

; Function Attrs: nounwind sspstrong uwtable
define internal ptr @QIO_CHANNEL_TLS(ptr noundef %obj) #0 {
entry:
  %obj.addr = alloca ptr, align 8
  store ptr %obj, ptr %obj.addr, align 8
  %0 = load ptr, ptr %obj.addr, align 8
  %call = call ptr @object_dynamic_cast_assert(ptr noundef %0, ptr noundef @.str, ptr noundef @.str.1, i32 noundef 30, ptr noundef @__func__.QIO_CHANNEL_TLS)
  ret ptr %call
}

; Function Attrs: nounwind sspstrong uwtable
define internal i32 @qio_channel_tls_handshake_io(ptr noundef %ioc, i32 noundef %condition, ptr noundef %user_data) #0 {
entry:
  %ioc.addr = alloca ptr, align 8
  %condition.addr = alloca i32, align 4
  %user_data.addr = alloca ptr, align 8
  %data = alloca ptr, align 8
  %task = alloca ptr, align 8
  %context = alloca ptr, align 8
  %tioc = alloca ptr, align 8
  store ptr %ioc, ptr %ioc.addr, align 8
  store i32 %condition, ptr %condition.addr, align 4
  store ptr %user_data, ptr %user_data.addr, align 8
  %0 = load ptr, ptr %user_data.addr, align 8
  store ptr %0, ptr %data, align 8
  %1 = load ptr, ptr %data, align 8
  %task1 = getelementptr inbounds %struct.QIOChannelTLSData, ptr %1, i32 0, i32 0
  %2 = load ptr, ptr %task1, align 8
  store ptr %2, ptr %task, align 8
  %3 = load ptr, ptr %data, align 8
  %context2 = getelementptr inbounds %struct.QIOChannelTLSData, ptr %3, i32 0, i32 1
  %4 = load ptr, ptr %context2, align 8
  store ptr %4, ptr %context, align 8
  %5 = load ptr, ptr %task, align 8
  %call = call ptr @qio_task_get_source(ptr noundef %5)
  %call3 = call ptr @QIO_CHANNEL_TLS(ptr noundef %call)
  store ptr %call3, ptr %tioc, align 8
  %6 = load ptr, ptr %tioc, align 8
  %hs_ioc_tag = getelementptr inbounds %struct.QIOChannelTLS, ptr %6, i32 0, i32 4
  store i32 0, ptr %hs_ioc_tag, align 4
  %7 = load ptr, ptr %data, align 8
  call void @g_free(ptr noundef %7)
  %8 = load ptr, ptr %tioc, align 8
  %9 = load ptr, ptr %task, align 8
  %10 = load ptr, ptr %context, align 8
  call void @qio_channel_tls_handshake_task(ptr noundef %8, ptr noundef %9, ptr noundef %10)
  %11 = load ptr, ptr %context, align 8
  %tobool = icmp ne ptr %11, null
  br i1 %tobool, label %if.then, label %if.end

if.then:                                          ; preds = %entry
  %12 = load ptr, ptr %context, align 8
  call void @g_main_context_unref(ptr noundef %12)
  br label %if.end

if.end:                                           ; preds = %if.then, %entry
  ret i32 0
}