; Function Attrs: nounwind sspstrong uwtable
define internal noundef i32 @qio_channel_tls_handshake_io(ptr readnone captures(none) %ioc, i32 %condition, ptr noundef %user_data) #0 {
entry:
  %0 = load ptr, ptr %user_data, align 8
  %context2 = getelementptr inbounds nuw i8, ptr %user_data, i64 8
  %1 = load ptr, ptr %context2, align 8
  %call = tail call ptr @qio_task_get_source(ptr noundef %0) #8
  %call.i = tail call ptr @object_dynamic_cast_assert(ptr noundef %call, ptr noundef nonnull @.str, ptr noundef nonnull @.str.1, i32 noundef 30, ptr noundef nonnull @__func__.QIO_CHANNEL_TLS) #8
  %hs_ioc_tag = getelementptr inbounds nuw i8, ptr %call.i, i64 116
  store i32 0, ptr %hs_ioc_tag, align 4
  tail call void @g_free(ptr noundef nonnull %user_data) #8
  tail call fastcc void @qio_channel_tls_handshake_task(ptr noundef %call.i, ptr noundef %0, ptr noundef %1)
  %tobool.not = icmp eq ptr %1, null
  br i1 %tobool.not, label %if.end, label %if.then

if.then:                                          ; preds = %entry
  tail call void @g_main_context_unref(ptr noundef nonnull %1) #8
  br label %if.end

if.end:                                           ; preds = %if.then, %entry
  ret i32 0
}